target datalayout = "e-m:e-p270:32:32-p271:32:32-p272:64:64-i64:64-i128:128-f80:128-n8:16:32:64-S128"
target triple = "x86_64-pc-linux-gnu"

%struct.config_file_t = type { i8, i8, ptr, ptr, i32, ptr }

; Function Attrs: nounwind uwtable
define dso_local void @pack_config_file(ptr noundef %0, i16 noundef zeroext %1, ptr noundef %2) #0 {
  %4 = alloca ptr, align 8
  %5 = alloca i16, align 2
  %6 = alloca ptr, align 8
  %7 = alloca ptr, align 8
  %8 = alloca i32, align 4
  %9 = alloca i32, align 4
  %10 = alloca i32, align 4
  store ptr %0, ptr %4, align 8
  store i16 %1, ptr %5, align 2
  store ptr %2, ptr %6, align 8
  call void @llvm.lifetime.start.p0(i64 8, ptr %7) #6
  %11 = load ptr, ptr %4, align 8
  store ptr %11, ptr %7, align 8
  %12 = load i16, ptr %5, align 2
  %13 = zext i16 %12 to i32
  %14 = icmp sge i32 %13, 10240
  br i1 %14, label %15, label %80

15:                                               ; preds = %3
  %16 = load ptr, ptr %7, align 8
  %17 = icmp ne ptr %16, null
  br i1 %17, label %29, label %18

18:                                               ; preds = %15
  %19 = load ptr, ptr %6, align 8
  call void @packbool(i1 noundef zeroext false, ptr noundef %19)
  %20 = load ptr, ptr %6, align 8
  call void @packbool(i1 noundef zeroext false, ptr noundef %20)
  br label %21

21:                                               ; preds = %18
  %22 = load ptr, ptr %6, align 8
  call void @packmem(ptr noundef null, i32 noundef 0, ptr noundef %22)
  br label %23

23:                                               ; preds = %21
  br label %24

24:                                               ; preds = %23
  br label %25

25:                                               ; preds = %24
  %26 = load ptr, ptr %6, align 8
  call void @packmem(ptr noundef null, i32 noundef 0, ptr noundef %26)
  br label %27

27:                                               ; preds = %25
  br label %28

28:                                               ; preds = %27
  store i32 1, ptr %8, align 4
  br label %81

29:                                               ; preds = %15
  %30 = load ptr, ptr %7, align 8
  %31 = getelementptr inbounds nuw %struct.config_file_t, ptr %30, i32 0, i32 0
  %32 = load i8, ptr %31, align 8, !range !15, !noundef !16
  %33 = trunc i8 %32 to i1
  %34 = load ptr, ptr %6, align 8
  call void @packbool(i1 noundef zeroext %33, ptr noundef %34)
  %35 = load ptr, ptr %7, align 8
  %36 = getelementptr inbounds nuw %struct.config_file_t, ptr %35, i32 0, i32 1
  %37 = load i8, ptr %36, align 1, !range !15, !noundef !16
  %38 = trunc i8 %37 to i1
  %39 = load ptr, ptr %6, align 8
  call void @packbool(i1 noundef zeroext %38, ptr noundef %39)
  br label %40

40:                                               ; preds = %29
  call void @llvm.lifetime.start.p0(i64 4, ptr %9) #6
  store i32 0, ptr %9, align 4
  %41 = load ptr, ptr %7, align 8
  %42 = getelementptr inbounds nuw %struct.config_file_t, ptr %41, i32 0, i32 2
  %43 = load ptr, ptr %42, align 8
  %44 = icmp ne ptr %43, null
  br i1 %44, label %45, label %52

45:                                               ; preds = %40
  %46 = load ptr, ptr %7, align 8
  %47 = getelementptr inbounds nuw %struct.config_file_t, ptr %46, i32 0, i32 2
  %48 = load ptr, ptr %47, align 8
  %49 = call i64 @strlen(ptr noundef %48) #7
  %50 = trunc i64 %49 to i32
  %51 = add i32 %50, 1
  store i32 %51, ptr %9, align 4
  br label %52

52:                                               ; preds = %45, %40
  %53 = load ptr, ptr %7, align 8
  %54 = getelementptr inbounds nuw %struct.config_file_t, ptr %53, i32 0, i32 2
  %55 = load ptr, ptr %54, align 8
  %56 = load i32, ptr %9, align 4
  %57 = load ptr, ptr %6, align 8
  call void @packmem(ptr noundef %55, i32 noundef %56, ptr noundef %57)
  call void @llvm.lifetime.end.p0(i64 4, ptr %9) #6
  br label %58

58:                                               ; preds = %52
  br label %59

59:                                               ; preds = %58
  br label %60

60:                                               ; preds = %59
  call void @llvm.lifetime.start.p0(i64 4, ptr %10) #6
  store i32 0, ptr %10, align 4
  %61 = load ptr, ptr %7, align 8
  %62 = getelementptr inbounds nuw %struct.config_file_t, ptr %61, i32 0, i32 3
  %63 = load ptr, ptr %62, align 8
  %64 = icmp ne ptr %63, null
  br i1 %64, label %65, label %72

65:                                               ; preds = %60
  %66 = load ptr, ptr %7, align 8
  %67 = getelementptr inbounds nuw %struct.config_file_t, ptr %66, i32 0, i32 3
  %68 = load ptr, ptr %67, align 8
  %69 = call i64 @strlen(ptr noundef %68) #7
  %70 = trunc i64 %69 to i32
  %71 = add i32 %70, 1
  store i32 %71, ptr %10, align 4
  br label %72

72:                                               ; preds = %65, %60
  %73 = load ptr, ptr %7, align 8
  %74 = getelementptr inbounds nuw %struct.config_file_t, ptr %73, i32 0, i32 3
  %75 = load ptr, ptr %74, align 8
  %76 = load i32, ptr %10, align 4
  %77 = load ptr, ptr %6, align 8
  call void @packmem(ptr noundef %75, i32 noundef %76, ptr noundef %77)
  call void @llvm.lifetime.end.p0(i64 4, ptr %10) #6
  br label %78

78:                                               ; preds = %72
  br label %79

79:                                               ; preds = %78
  br label %80

80:                                               ; preds = %79, %3
  store i32 0, ptr %8, align 4
  br label %81

81:                                               ; preds = %80, %28
  call void @llvm.lifetime.end.p0(i64 8, ptr %7) #6
  %82 = load i32, ptr %8, align 4
  switch i32 %82, label %84 [
    i32 0, label %83
    i32 1, label %83
  ]

83:                                               ; preds = %81, %81
  ret void

84:                                               ; preds = %81
  unreachable
}