; Function Attrs: nounwind uwtable
define dso_local void @pack_config_file(ptr noundef readonly captures(address_is_null) %0, i16 noundef zeroext %1, ptr noundef %2) #0 {
  %4 = icmp ugt i16 %1, 10239
  br i1 %4, label %5, label %27

5:                                                ; preds = %3
  %.not = icmp eq ptr %0, null
  br i1 %.not, label %6, label %7

6:                                                ; preds = %5
  tail call void @packbool(i1 noundef zeroext false, ptr noundef %2) #7
  tail call void @packbool(i1 noundef zeroext false, ptr noundef %2) #7
  tail call void @packmem(ptr noundef null, i32 noundef 0, ptr noundef %2) #7
  tail call void @packmem(ptr noundef null, i32 noundef 0, ptr noundef %2) #7
  br label %27

7:                                                ; preds = %5
  %8 = load i8, ptr %0, align 8, !range !15, !noundef !16
  %9 = trunc nuw i8 %8 to i1
  tail call void @packbool(i1 noundef zeroext %9, ptr noundef %2) #7
  %10 = getelementptr inbounds nuw i8, ptr %0, i64 1
  %11 = load i8, ptr %10, align 1, !range !15, !noundef !16
  %12 = trunc nuw i8 %11 to i1
  tail call void @packbool(i1 noundef zeroext %12, ptr noundef %2) #7
  %13 = getelementptr inbounds nuw i8, ptr %0, i64 8
  %14 = load ptr, ptr %13, align 8
  %.not24 = icmp eq ptr %14, null
  br i1 %.not24, label %19, label %15

15:                                               ; preds = %7
  %16 = tail call i64 @strlen(ptr noundef nonnull dereferenceable(1) %14) #8
  %17 = trunc i64 %16 to i32
  %18 = add i32 %17, 1
  br label %19

19:                                               ; preds = %15, %7
  %.020 = phi i32 [ %18, %15 ], [ 0, %7 ]
  tail call void @packmem(ptr noundef %14, i32 noundef %.020, ptr noundef %2) #7
  %20 = getelementptr inbounds nuw i8, ptr %0, i64 16
  %21 = load ptr, ptr %20, align 8
  %.not25 = icmp eq ptr %21, null
  br i1 %.not25, label %26, label %22

22:                                               ; preds = %19
  %23 = tail call i64 @strlen(ptr noundef nonnull dereferenceable(1) %21) #8
  %24 = trunc i64 %23 to i32
  %25 = add i32 %24, 1
  br label %26

26:                                               ; preds = %22, %19
  %.0 = phi i32 [ %25, %22 ], [ 0, %19 ]
  tail call void @packmem(ptr noundef %21, i32 noundef %.0, ptr noundef %2) #7
  br label %27

27:                                               ; preds = %3, %26, %6
  ret void
}